target datalayout = "e-m:e-p270:32:32-p271:32:32-p272:64:64-i64:64-i128:128-f80:128-n8:16:32:64-S128"
target triple = "x86_64-pc-linux-gnu"

%struct.H5D_chk_idx_info_t = type { ptr, ptr, ptr, ptr }
%struct.H5O_layout_chunk_t = type { i32, i8, i32, [33 x i32], i32, i32, i64, i64, [33 x i64], [33 x i64], [33 x i64], [33 x i64], %union.anon.0 }
%union.anon.0 = type { %struct.H5O_layout_chunk_earray_t }
%struct.H5O_layout_chunk_earray_t = type { %struct.anon.1, i32, [33 x i32], [33 x i64], [33 x i64] }
%struct.anon.1 = type { i8, i8, i8, i8, i8 }
%struct.H5O_storage_chunk_t = type { i32, i64, ptr, %union.anon.4 }
%union.anon.4 = type { %struct.H5O_storage_chunk_btree_t }
%struct.H5O_storage_chunk_btree_t = type { i64, ptr }
%struct.H5O_storage_chunk_earray_t = type { i64, ptr }

@H5D_init_g = external global i8, align 1
@H5_libterm_g = external global i8, align 1
@.str.2 = private unnamed_addr constant [103 x i8] c"generated/home/dtcxzyw/WorkSpace/Projects/compilers/llvm-opt-benchmark/bench/hdf5/hdf5/src/H5Dearray.c\00", align 1
@H5E_DATASET_g = external global i64, align 8
@H5E_CANTGET_g = external global i64, align 8
@__func__.H5D__earray_idx_init = private unnamed_addr constant [21 x i8] c"H5D__earray_idx_init\00", align 1
@.str.15 = private unnamed_addr constant [31 x i8] c"can't get dataspace dimensions\00", align 1
@H5E_ALREADYINIT_g = external global i64, align 8
@.str.16 = private unnamed_addr constant [34 x i8] c"already found unlimited dimension\00", align 1
@H5E_UNINITIALIZED_g = external global i64, align 8
@.str.17 = private unnamed_addr constant [32 x i8] c"didn't find unlimited dimension\00", align 1

; Function Attrs: nounwind uwtable
define internal i32 @H5D__earray_idx_init(ptr noundef %0, ptr noundef %1, i64 noundef %2) #0 {
  %4 = alloca ptr, align 8
  %5 = alloca ptr, align 8
  %6 = alloca i64, align 8
  %7 = alloca [33 x i64], align 16
  %8 = alloca i32, align 4
  %9 = alloca i32, align 4
  %10 = alloca i32, align 4
  %11 = alloca i32, align 4
  %12 = alloca i32, align 4
  %13 = alloca i8, align 1
  store ptr %0, ptr %4, align 8, !tbaa !3
  store ptr %1, ptr %5, align 8, !tbaa !8
  store i64 %2, ptr %6, align 8, !tbaa !10
  call void @llvm.lifetime.start.p0(i64 264, ptr %7) #8
  call void @llvm.lifetime.start.p0(i64 4, ptr %8) #8
  call void @llvm.lifetime.start.p0(i64 4, ptr %9) #8
  call void @llvm.lifetime.start.p0(i64 4, ptr %10) #8
  call void @llvm.lifetime.start.p0(i64 4, ptr %11) #8
  call void @llvm.lifetime.start.p0(i64 4, ptr %12) #8
  store i32 0, ptr %12, align 4, !tbaa !12
  call void @llvm.lifetime.start.p0(i64 1, ptr %13) #8
  store i8 0, ptr %13, align 1, !tbaa !14
  %14 = load i8, ptr @H5D_init_g, align 1, !tbaa !14, !range !16, !noundef !17
  %15 = trunc i8 %14 to i1
  br i1 %15, label %20, label %16

16:                                               ; preds = %3
  %17 = load i8, ptr @H5_libterm_g, align 1, !tbaa !14, !range !16, !noundef !17
  %18 = trunc i8 %17 to i1
  %19 = xor i1 %18, true
  br label %20

20:                                               ; preds = %16, %3
  %21 = phi i1 [ true, %3 ], [ %19, %16 ]
  %22 = xor i1 %21, true
  %23 = xor i1 %22, true
  %24 = zext i1 %23 to i32
  %25 = sext i32 %24 to i64
  %26 = call i64 @llvm.expect.i64(i64 %25, i64 1)
  %27 = icmp ne i64 %26, 0
  br i1 %27, label %28, label %131

28:                                               ; preds = %20
  %29 = load ptr, ptr %5, align 8, !tbaa !8
  %30 = getelementptr inbounds [33 x i64], ptr %7, i64 0, i64 0
  %31 = call i32 @H5S_get_simple_extent_dims(ptr noundef %29, ptr noundef null, ptr noundef %30)
  store i32 %31, ptr %9, align 4, !tbaa !12
  %32 = icmp slt i32 %31, 0
  br i1 %32, label %33, label %52

33:                                               ; preds = %28
  br label %34

34:                                               ; preds = %33
  br label %35

35:                                               ; preds = %34
  br label %36

36:                                               ; preds = %35
  %37 = load i64, ptr @H5E_DATASET_g, align 8, !tbaa !10
  %38 = load i64, ptr @H5E_CANTGET_g, align 8, !tbaa !10
  %39 = call i32 (ptr, ptr, i32, i64, i64, ptr, ...) @H5E_printf_stack(ptr noundef @.str.2, ptr noundef @__func__.H5D__earray_idx_init, i32 noundef 749, i64 noundef %37, i64 noundef %38, ptr noundef @.str.15)
  br label %40

40:                                               ; preds = %36
  br label %41

41:                                               ; preds = %40
  store i8 1, ptr %13, align 1, !tbaa !14
  %42 = load i8, ptr %13, align 1, !tbaa !14, !range !16, !noundef !17
  %43 = trunc i8 %42 to i1
  %44 = zext i1 %43 to i8
  store i8 %44, ptr %13, align 1, !tbaa !14
  br label %45

45:                                               ; preds = %41
  br label %46

46:                                               ; preds = %45
  br label %47

47:                                               ; preds = %46
  store i32 -1, ptr %12, align 4, !tbaa !12
  br label %130

48:                                               ; No predecessors!
  br label %49

49:                                               ; preds = %48
  br label %50

50:                                               ; preds = %49
  br label %51

51:                                               ; preds = %50
  br label %52

52:                                               ; preds = %51, %28
  br label %53

53:                                               ; preds = %52
  %54 = load i32, ptr %9, align 4, !tbaa !12
  store i32 %54, ptr %10, align 4, !tbaa !12
  br label %55

55:                                               ; preds = %53
  br label %56

56:                                               ; preds = %55
  store i32 -1, ptr %8, align 4, !tbaa !12
  store i32 0, ptr %11, align 4, !tbaa !12
  br label %57

57:                                               ; preds = %92, %56
  %58 = load i32, ptr %11, align 4, !tbaa !12
  %59 = load i32, ptr %10, align 4, !tbaa !12
  %60 = icmp ult i32 %58, %59
  br i1 %60, label %61, label %95

61:                                               ; preds = %57
  %62 = load i32, ptr %11, align 4, !tbaa !12
  %63 = zext i32 %62 to i64
  %64 = getelementptr inbounds nuw [33 x i64], ptr %7, i64 0, i64 %63
  %65 = load i64, ptr %64, align 8, !tbaa !10
  %66 = icmp eq i64 -1, %65
  br i1 %66, label %67, label %91

67:                                               ; preds = %61
  %68 = load i32, ptr %8, align 4, !tbaa !12
  %69 = icmp sge i32 %68, 0
  br i1 %69, label %70, label %89

70:                                               ; preds = %67
  br label %71

71:                                               ; preds = %70
  br label %72

72:                                               ; preds = %71
  br label %73

73:                                               ; preds = %72
  %74 = load i64, ptr @H5E_DATASET_g, align 8, !tbaa !10
  %75 = load i64, ptr @H5E_ALREADYINIT_g, align 8, !tbaa !10
  %76 = call i32 (ptr, ptr, i32, i64, i64, ptr, ...) @H5E_printf_stack(ptr noundef @.str.2, ptr noundef @__func__.H5D__earray_idx_init, i32 noundef 759, i64 noundef %74, i64 noundef %75, ptr noundef @.str.16)
  br label %77

77:                                               ; preds = %73
  br label %78

78:                                               ; preds = %77
  store i8 1, ptr %13, align 1, !tbaa !14
  %79 = load i8, ptr %13, align 1, !tbaa !14, !range !16, !noundef !17
  %80 = trunc i8 %79 to i1
  %81 = zext i1 %80 to i8
  store i8 %81, ptr %13, align 1, !tbaa !14
  br label %82

82:                                               ; preds = %78
  br label %83

83:                                               ; preds = %82
  br label %84

84:                                               ; preds = %83
  store i32 -1, ptr %12, align 4, !tbaa !12
  br label %130

85:                                               ; No predecessors!
  br label %86

86:                                               ; preds = %85
  br label %87

87:                                               ; preds = %86
  br label %88

88:                                               ; preds = %87
  br label %89

89:                                               ; preds = %88, %67
  %90 = load i32, ptr %11, align 4, !tbaa !12
  store i32 %90, ptr %8, align 4, !tbaa !12
  br label %91

91:                                               ; preds = %89, %61
  br label %92

92:                                               ; preds = %91
  %93 = load i32, ptr %11, align 4, !tbaa !12
  %94 = add i32 %93, 1
  store i32 %94, ptr %11, align 4, !tbaa !12
  br label %57, !llvm.loop !18

95:                                               ; preds = %57
  %96 = load i32, ptr %8, align 4, !tbaa !12
  %97 = icmp slt i32 %96, 0
  br i1 %97, label %98, label %117

98:                                               ; preds = %95
  br label %99

99:                                               ; preds = %98
  br label %100

100:                                              ; preds = %99
  br label %101

101:                                              ; preds = %100
  %102 = load i64, ptr @H5E_DATASET_g, align 8, !tbaa !10
  %103 = load i64, ptr @H5E_UNINITIALIZED_g, align 8, !tbaa !10
  %104 = call i32 (ptr, ptr, i32, i64, i64, ptr, ...) @H5E_printf_stack(ptr noundef @.str.2, ptr noundef @__func__.H5D__earray_idx_init, i32 noundef 768, i64 noundef %102, i64 noundef %103, ptr noundef @.str.17)
  br label %105

105:                                              ; preds = %101
  br label %106

106:                                              ; preds = %105
  store i8 1, ptr %13, align 1, !tbaa !14
  %107 = load i8, ptr %13, align 1, !tbaa !14, !range !16, !noundef !17
  %108 = trunc i8 %107 to i1
  %109 = zext i1 %108 to i8
  store i8 %109, ptr %13, align 1, !tbaa !14
  br label %110

110:                                              ; preds = %106
  br label %111

111:                                              ; preds = %110
  br label %112

112:                                              ; preds = %111
  store i32 -1, ptr %12, align 4, !tbaa !12
  br label %130

113:                                              ; No predecessors!
  br label %114

114:                                              ; preds = %113
  br label %115

115:                                              ; preds = %114
  br label %116

116:                                              ; preds = %115
  br label %117

117:                                              ; preds = %116, %95
  %118 = load i32, ptr %8, align 4, !tbaa !12
  %119 = load ptr, ptr %4, align 8, !tbaa !3
  %120 = getelementptr inbounds nuw %struct.H5D_chk_idx_info_t, ptr %119, i32 0, i32 2
  %121 = load ptr, ptr %120, align 8, !tbaa !20
  %122 = getelementptr inbounds nuw %struct.H5O_layout_chunk_t, ptr %121, i32 0, i32 12
  %123 = getelementptr inbounds nuw %struct.H5O_layout_chunk_earray_t, ptr %122, i32 0, i32 1
  store i32 %118, ptr %123, align 8, !tbaa !26
  %124 = load i64, ptr %6, align 8, !tbaa !10
  %125 = load ptr, ptr %4, align 8, !tbaa !3
  %126 = getelementptr inbounds nuw %struct.H5D_chk_idx_info_t, ptr %125, i32 0, i32 3
  %127 = load ptr, ptr %126, align 8, !tbaa !27
  %128 = getelementptr inbounds nuw %struct.H5O_storage_chunk_t, ptr %127, i32 0, i32 3
  %129 = getelementptr inbounds nuw %struct.H5O_storage_chunk_earray_t, ptr %128, i32 0, i32 0
  store i64 %124, ptr %129, align 8, !tbaa !26
  br label %130

130:                                              ; preds = %117, %112, %84, %47
  br label %131

131:                                              ; preds = %130, %20
  %132 = load i32, ptr %12, align 4, !tbaa !12
  call void @llvm.lifetime.end.p0(i64 1, ptr %13) #8
  call void @llvm.lifetime.end.p0(i64 4, ptr %12) #8
  call void @llvm.lifetime.end.p0(i64 4, ptr %11) #8
  call void @llvm.lifetime.end.p0(i64 4, ptr %10) #8
  call void @llvm.lifetime.end.p0(i64 4, ptr %9) #8
  call void @llvm.lifetime.end.p0(i64 4, ptr %8) #8
  call void @llvm.lifetime.end.p0(i64 264, ptr %7) #8
  ret i32 %132
}