; Function Attrs: nounwind uwtable
define internal range(i32 -1, 1) i32 @H5D__earray_idx_init(ptr noundef readonly captures(none) %0, ptr noundef %1, i64 noundef %2) #0 {
  %4 = alloca [33 x i64], align 16
  call void @llvm.lifetime.start.p0(i64 264, ptr nonnull %4) #11
  %5 = load i8, ptr @H5D_init_g, align 1, !tbaa !3, !range !7, !noundef !8
  %6 = trunc nuw i8 %5 to i1
  %7 = load i8, ptr @H5_libterm_g, align 1, !range !7
  %8 = trunc nuw i8 %7 to i1
  %9 = xor i1 %8, true
  %10 = select i1 %6, i1 true, i1 %9
  br i1 %10, label %11, label %40, !prof !9

11:                                               ; preds = %3
  %12 = call i32 @H5S_get_simple_extent_dims(ptr noundef %1, ptr noundef null, ptr noundef nonnull %4) #11
  %13 = icmp slt i32 %12, 0
  br i1 %13, label %14, label %.preheader

.preheader:                                       ; preds = %11
  %.not = icmp eq i32 %12, 0
  br i1 %.not, label %._crit_edge.thread, label %.lr.ph.preheader

.lr.ph.preheader:                                 ; preds = %.preheader
  %wide.trip.count = zext nneg i32 %12 to i64
  br label %.lr.ph

14:                                               ; preds = %11
  %15 = load i64, ptr @H5E_DATASET_g, align 8, !tbaa !10
  %16 = load i64, ptr @H5E_CANTGET_g, align 8, !tbaa !10
  %17 = call i32 (ptr, ptr, i32, i64, i64, ptr, ...) @H5E_printf_stack(ptr noundef nonnull @.str.2, ptr noundef nonnull @__func__.H5D__earray_idx_init, i32 noundef 749, i64 noundef %15, i64 noundef %16, ptr noundef nonnull @.str.15) #11
  br label %40

.lr.ph:                                           ; preds = %.lr.ph.preheader, %28
  %indvars.iv = phi i64 [ 0, %.lr.ph.preheader ], [ %indvars.iv.next, %28 ]
  %.01720 = phi i32 [ -1, %.lr.ph.preheader ], [ %.1, %28 ]
  %18 = getelementptr inbounds nuw [33 x i64], ptr %4, i64 0, i64 %indvars.iv
  %19 = load i64, ptr %18, align 8, !tbaa !10
  %20 = icmp eq i64 %19, -1
  br i1 %20, label %21, label %28

21:                                               ; preds = %.lr.ph
  %22 = icmp sgt i32 %.01720, -1
  %23 = trunc nuw nsw i64 %indvars.iv to i32
  br i1 %22, label %24, label %28

24:                                               ; preds = %21
  %25 = load i64, ptr @H5E_DATASET_g, align 8, !tbaa !10
  %26 = load i64, ptr @H5E_ALREADYINIT_g, align 8, !tbaa !10
  %27 = call i32 (ptr, ptr, i32, i64, i64, ptr, ...) @H5E_printf_stack(ptr noundef nonnull @.str.2, ptr noundef nonnull @__func__.H5D__earray_idx_init, i32 noundef 759, i64 noundef %25, i64 noundef %26, ptr noundef nonnull @.str.16) #11
  br label %40

28:                                               ; preds = %21, %.lr.ph
  %.1 = phi i32 [ %.01720, %.lr.ph ], [ %23, %21 ]
  %indvars.iv.next = add nuw nsw i64 %indvars.iv, 1
  %exitcond.not = icmp eq i64 %indvars.iv.next, %wide.trip.count
  br i1 %exitcond.not, label %._crit_edge, label %.lr.ph, !llvm.loop !12

._crit_edge:                                      ; preds = %28
  %29 = icmp slt i32 %.1, 0
  br i1 %29, label %._crit_edge.thread, label %33

._crit_edge.thread:                               ; preds = %.preheader, %._crit_edge
  %30 = load i64, ptr @H5E_DATASET_g, align 8, !tbaa !10
  %31 = load i64, ptr @H5E_UNINITIALIZED_g, align 8, !tbaa !10
  %32 = call i32 (ptr, ptr, i32, i64, i64, ptr, ...) @H5E_printf_stack(ptr noundef nonnull @.str.2, ptr noundef nonnull @__func__.H5D__earray_idx_init, i32 noundef 768, i64 noundef %30, i64 noundef %31, ptr noundef nonnull @.str.17) #11
  br label %40

33:                                               ; preds = %._crit_edge
  %34 = getelementptr inbounds nuw i8, ptr %0, i64 16
  %35 = load ptr, ptr %34, align 8, !tbaa !14
  %36 = getelementptr inbounds nuw i8, ptr %35, i64 1232
  store i32 %.1, ptr %36, align 8, !tbaa !21
  %37 = getelementptr inbounds nuw i8, ptr %0, i64 24
  %38 = load ptr, ptr %37, align 8, !tbaa !22
  %39 = getelementptr inbounds nuw i8, ptr %38, i64 24
  store i64 %2, ptr %39, align 8, !tbaa !21
  br label %40

40:                                               ; preds = %14, %24, %._crit_edge.thread, %33, %3
  %.0 = phi i32 [ -1, %14 ], [ -1, %24 ], [ -1, %._crit_edge.thread ], [ 0, %33 ], [ 0, %3 ]
  call void @llvm.lifetime.end.p0(i64 264, ptr nonnull %4) #11
  ret i32 %.0
}